; Function Attrs: mustprogress uwtable
define hidden noundef zeroext i1 @_ZN4lean20lcnf_check_let_declsERKNS_16elab_environmentERKNS_8list_refINS_8pair_refINS_4nameENS_4exprEEEEE(ptr noundef nonnull align 8 dereferenceable(8) %0, ptr noundef nonnull readonly align 8 captures(none) dereferenceable(8) %1) local_unnamed_addr #0 {
  %.sroa.09.012 = load ptr, ptr %1, align 8, !tbaa !16
  %.not13 = icmp eq ptr %.sroa.09.012, inttoptr (i64 1 to ptr)
  br i1 %.not13, label %._crit_edge, label %.lr.ph

3:                                                ; preds = %.lr.ph
  %4 = getelementptr inbounds nuw i8, ptr %.sroa.09.014, i64 16
  %.sroa.09.0 = load ptr, ptr %4, align 8, !tbaa !16
  %.not = icmp eq ptr %.sroa.09.0, inttoptr (i64 1 to ptr)
  br i1 %.not, label %._crit_edge, label %.lr.ph

.lr.ph:                                           ; preds = %2, %3
  %.sroa.09.014 = phi ptr [ %.sroa.09.0, %3 ], [ %.sroa.09.012, %2 ]
  %5 = getelementptr inbounds nuw i8, ptr %.sroa.09.014, i64 8
  %6 = tail call noundef zeroext i1 @_ZN4lean20lcnf_check_let_declsERKNS_16elab_environmentERKNS_8pair_refINS_4nameENS_4exprEEE(ptr noundef nonnull align 8 dereferenceable(8) %0, ptr noundef nonnull align 8 dereferenceable(8) %5)
  br i1 %6, label %3, label %._crit_edge

._crit_edge:                                      ; preds = %.lr.ph, %3, %2
  %.not.lcssa = phi i1 [ true, %2 ], [ %6, %3 ], [ %6, %.lr.ph ]
  ret i1 %.not.lcssa
}